target datalayout = "e-m:e-p270:32:32-p271:32:32-p272:64:64-i64:64-i128:128-f80:128-n8:16:32:64-S128"
target triple = "x86_64-pc-linux-gnu"

%struct.HashJoinTableData = type { i32, i32, i32, i32, i32, %union.anon, i8, ptr, i32, i32, ptr, i32, i32, i32, i32, i8, double, double, double, ptr, ptr, i64, i64, i64, i64, i64, ptr, ptr, ptr, ptr, ptr, ptr, ptr, ptr, i64 }
%union.anon = type { ptr }
%struct.HashSkewBucket = type { i32, ptr }

; Function Attrs: nounwind uwtable
define dso_local i32 @ExecHashGetSkewBucket(ptr noundef %0, i32 noundef %1) #0 {
  %3 = alloca i32, align 4
  %4 = alloca ptr, align 8
  %5 = alloca i32, align 4
  %6 = alloca i32, align 4
  %7 = alloca i32, align 4
  store ptr %0, ptr %4, align 8
  store i32 %1, ptr %5, align 4
  call void @llvm.lifetime.start.p0(i64 4, ptr %6) #9
  %8 = load ptr, ptr %4, align 8
  %9 = getelementptr inbounds nuw %struct.HashJoinTableData, ptr %8, i32 0, i32 6
  %10 = load i8, ptr %9, align 8, !range !4, !noundef !5
  %11 = trunc i8 %10 to i1
  br i1 %11, label %13, label %12

12:                                               ; preds = %2
  store i32 -1, ptr %3, align 4
  store i32 1, ptr %7, align 4
  br label %63

13:                                               ; preds = %2
  %14 = load i32, ptr %5, align 4
  %15 = load ptr, ptr %4, align 8
  %16 = getelementptr inbounds nuw %struct.HashJoinTableData, ptr %15, i32 0, i32 8
  %17 = load i32, ptr %16, align 8
  %18 = sub i32 %17, 1
  %19 = and i32 %14, %18
  store i32 %19, ptr %6, align 4
  br label %20

20:                                               ; preds = %43, %13
  %21 = load ptr, ptr %4, align 8
  %22 = getelementptr inbounds nuw %struct.HashJoinTableData, ptr %21, i32 0, i32 7
  %23 = load ptr, ptr %22, align 8
  %24 = load i32, ptr %6, align 4
  %25 = sext i32 %24 to i64
  %26 = getelementptr inbounds ptr, ptr %23, i64 %25
  %27 = load ptr, ptr %26, align 8
  %28 = icmp ne ptr %27, null
  br i1 %28, label %29, label %41

29:                                               ; preds = %20
  %30 = load ptr, ptr %4, align 8
  %31 = getelementptr inbounds nuw %struct.HashJoinTableData, ptr %30, i32 0, i32 7
  %32 = load ptr, ptr %31, align 8
  %33 = load i32, ptr %6, align 4
  %34 = sext i32 %33 to i64
  %35 = getelementptr inbounds ptr, ptr %32, i64 %34
  %36 = load ptr, ptr %35, align 8
  %37 = getelementptr inbounds nuw %struct.HashSkewBucket, ptr %36, i32 0, i32 0
  %38 = load i32, ptr %37, align 8
  %39 = load i32, ptr %5, align 4
  %40 = icmp ne i32 %38, %39
  br label %41

41:                                               ; preds = %29, %20
  %42 = phi i1 [ false, %20 ], [ %40, %29 ]
  br i1 %42, label %43, label %51

43:                                               ; preds = %41
  %44 = load i32, ptr %6, align 4
  %45 = add i32 %44, 1
  %46 = load ptr, ptr %4, align 8
  %47 = getelementptr inbounds nuw %struct.HashJoinTableData, ptr %46, i32 0, i32 8
  %48 = load i32, ptr %47, align 8
  %49 = sub i32 %48, 1
  %50 = and i32 %45, %49
  store i32 %50, ptr %6, align 4
  br label %20, !llvm.loop !26

51:                                               ; preds = %41
  %52 = load ptr, ptr %4, align 8
  %53 = getelementptr inbounds nuw %struct.HashJoinTableData, ptr %52, i32 0, i32 7
  %54 = load ptr, ptr %53, align 8
  %55 = load i32, ptr %6, align 4
  %56 = sext i32 %55 to i64
  %57 = getelementptr inbounds ptr, ptr %54, i64 %56
  %58 = load ptr, ptr %57, align 8
  %59 = icmp ne ptr %58, null
  br i1 %59, label %60, label %62

60:                                               ; preds = %51
  %61 = load i32, ptr %6, align 4
  store i32 %61, ptr %3, align 4
  store i32 1, ptr %7, align 4
  br label %63

62:                                               ; preds = %51
  store i32 -1, ptr %3, align 4
  store i32 1, ptr %7, align 4
  br label %63

63:                                               ; preds = %62, %60, %12
  call void @llvm.lifetime.end.p0(i64 4, ptr %6) #9
  %64 = load i32, ptr %3, align 4
  ret i32 %64
}