; Function Attrs: nofree norecurse nosync nounwind memory(read, inaccessiblemem: none) uwtable
define dso_local i32 @ExecHashGetSkewBucket(ptr noundef readonly captures(none) %0, i32 noundef %1) local_unnamed_addr #11 {
  %3 = getelementptr inbounds nuw i8, ptr %0, i64 32
  %4 = load i8, ptr %3, align 8, !range !4, !noundef !5
  %5 = trunc nuw i8 %4 to i1
  br i1 %5, label %6, label %.critedge

6:                                                ; preds = %2
  %7 = getelementptr inbounds nuw i8, ptr %0, i64 48
  %8 = load i32, ptr %7, align 8
  %9 = add i32 %8, -1
  %10 = getelementptr inbounds nuw i8, ptr %0, i64 40
  %11 = load ptr, ptr %10, align 8
  %.017 = and i32 %1, %9
  %12 = sext i32 %.017 to i64
  %13 = getelementptr inbounds ptr, ptr %11, i64 %12
  %14 = load ptr, ptr %13, align 8
  %.not18 = icmp eq ptr %14, null
  br i1 %.not18, label %.critedge, label %.lr.ph

.lr.ph:                                           ; preds = %6, %17
  %15 = phi ptr [ %21, %17 ], [ %14, %6 ]
  %.019 = phi i32 [ %.0, %17 ], [ %.017, %6 ]
  %16 = load i32, ptr %15, align 8
  %.not15 = icmp eq i32 %16, %1
  br i1 %.not15, label %.critedge, label %17

17:                                               ; preds = %.lr.ph
  %18 = add i32 %.019, 1
  %.0 = and i32 %18, %9
  %19 = sext i32 %.0 to i64
  %20 = getelementptr inbounds ptr, ptr %11, i64 %19
  %21 = load ptr, ptr %20, align 8
  %.not = icmp eq ptr %21, null
  br i1 %.not, label %.critedge, label %.lr.ph, !llvm.loop !9

.critedge:                                        ; preds = %17, %.lr.ph, %6, %2
  %.013 = phi i32 [ -1, %2 ], [ -1, %6 ], [ -1, %17 ], [ %.019, %.lr.ph ]
  ret i32 %.013
}